target datalayout = "e-m:e-p270:32:32-p271:32:32-p272:64:64-i64:64-i128:128-f80:128-n8:16:32:64-S128"
target triple = "x86_64-unknown-linux-gnu"

%"class.sat::literal" = type { i32 }
%class.symbol = type { ptr }
%"class.euf::th_solver" = type { %"class.sat::extension", %"class.euf::th_model_builder", %"class.euf::th_decompile", %"class.euf::th_internalizer", ptr }
%"class.sat::extension" = type { ptr, i8, i32, %class.symbol, ptr }
%"class.euf::th_model_builder" = type { ptr }
%"class.euf::th_decompile" = type { ptr }
%"class.euf::th_internalizer" = type { ptr, %class.ptr_vector, %class.svector }
%class.svector = type { %class.vector.0 }
%class.vector.0 = type { ptr }
%class.ptr_vector = type { %class.vector }
%class.vector = type { ptr }
%class.svector.1 = type { %class.vector.2 }
%class.vector.2 = type { ptr }
%struct.smt_params = type { %struct.preprocessor_params.base, %struct.dyn_ack_params, %struct.qi_params, %struct.theory_arith_params.base, i8, %struct.theory_array_params.base, %struct.theory_bv_params, %struct.theory_str_params.base, %struct.theory_seq_params, %struct.theory_pb_params.base, %struct.theory_datatype_params, i8, i8, i8, i8, i8, i8, i32, i8, i32, double, double, i32, i32, i32, i32, i32, i8, i32, i32, i32, i32, i32, i32, i8, i32, i8, i8, i8, i8, i8, %class.symbol, i32, i32, i8, i8, i8, i8, i32, i8, i32, i32, double, i8, double, double, i32, i8, i32, i32, double, i32, i32, i32, i32, i32, double, i8, i8, i8, %class.symbol, i8, i8, i8, i8, i8, i8, i32, i8, i8, i8, i8, i8, i8, i8, i8, i8, double, i8, %class.symbol }
%struct.preprocessor_params.base = type <{ %struct.pattern_inference_params.base, %struct.bit_blaster_params, i32, i32, i8, i8, i8, i8, i8, i8, i8, i8, i8, i8, i8, i8, i8, i8, i8, i8, i8, i8, i8 }>
%struct.pattern_inference_params.base = type <{ i8, [3 x i8], i32, i8, i8, [2 x i8], i32, i8, [3 x i8], i32, i32, i8, [3 x i8], i32, i8, i8 }>
%struct.bit_blaster_params = type { i8, i8 }
%struct.dyn_ack_params = type { i32, i8, double, i32, i32, double }
%struct.qi_params = type { %"class.std::__cxx11::basic_string", %"class.std::__cxx11::basic_string", double, double, i32, i32, i8, i32, i32, i8, i8, i32, i8, i8, i8, i8, i32, i32, i32, i8, i32, ptr }
%struct.theory_arith_params.base = type <{ i8, i8, [2 x i8], i32, i8, [3 x i8], i32, i8, [3 x i8], i32, i8, i8, [2 x i8], i32, i32, i8, i8, [2 x i8], i32, i32, i8, [3 x i8], i32, i32, i8, [3 x i8], double, double, i8, [3 x i8], i32, i8, i8, i8, i8, i8, [3 x i8], i32, i32, i8, [3 x i8], i32, i8, i8, i8, i8, i8, i8, [2 x i8], i32, i8, i8, [2 x i8], i32, i8, [3 x i8], i32, i8, i8, i8 }>
%struct.theory_array_params.base = type <{ i8, i8, [2 x i8], i32, i8, i8, [2 x i8], i32, i8, i8, i8, i8, i32, i8 }>
%struct.theory_bv_params = type { i32, i8, i8, i8, i8, i32, i8, i8, i8, i8, i32 }
%struct.theory_str_params.base = type <{ i8, i8, i8, i8, i8, i8, i8, i8, double, i32, i32, i32, i32, i32, i8, i8 }>
%struct.theory_seq_params = type { i8, i8, i32, i32 }
%struct.theory_pb_params.base = type <{ i32, i8 }>
%struct.theory_datatype_params = type { i32 }
%"class.std::__cxx11::basic_string" = type { %"struct.std::__cxx11::basic_string<char>::_Alloc_hider", i64, %union.anon }
%"struct.std::__cxx11::basic_string<char>::_Alloc_hider" = type { ptr }
%union.anon = type { i64, [8 x i8] }
%"class.euf::th_euf_solver" = type <{ %"class.euf::th_solver", ptr, %class.ptr_vector, %class.svector.1, i32, [4 x i8] }>
%class.quantifier = type { %class.expr, i32, i32, ptr, ptr, i32, i32, i8, i8, %class.symbol, %class.symbol, i32, i32, [0 x i8] }
%class.expr = type { %class.ast }
%class.ast = type { i32, i24, i32, i32 }
%class.obj_ref.349 = type { ptr, ptr }
%"struct.q::justification" = type { ptr, ptr, i8, i32, i32, ptr, ptr, ptr }
%"struct.q::clause" = type { i32, %class.vector.373, %class.obj_ref.349, i32, %"class.sat::literal", ptr, ptr }
%class.vector.373 = type { ptr }

; Function Attrs: mustprogress nounwind uwtable
define linkonce_odr hidden noundef i32 @_ZNK10quantifier13get_num_declsEv(ptr noundef nonnull align 8 dereferenceable(80) %this) #4 comdat align 2 {
entry:
  %this.addr = alloca ptr, align 8
  store ptr %this, ptr %this.addr, align 8
  %this1 = load ptr, ptr %this.addr, align 8
  %m_num_decls = getelementptr inbounds %class.quantifier, ptr %this1, i32 0, i32 2
  %0 = load i32, ptr %m_num_decls, align 4
  ret i32 %0
}

; Function Attrs: mustprogress nounwind uwtable
define linkonce_odr hidden noundef ptr @_ZNK7obj_refI10quantifier11ast_managerEptEv(ptr noundef nonnull align 8 dereferenceable(16) %this) #4 comdat align 2 {
entry:
  %this.addr = alloca ptr, align 8
  store ptr %this, ptr %this.addr, align 8
  %this1 = load ptr, ptr %this.addr, align 8
  %m_obj = getelementptr inbounds %class.obj_ref.349, ptr %this1, i32 0, i32 0
  %0 = load ptr, ptr %m_obj, align 8
  ret ptr %0
}

; Function Attrs: mustprogress uwtable
define linkonce_odr hidden noundef i32 @_ZNK1q6clause9num_declsEv(ptr noundef nonnull align 8 dereferenceable(56) %this) #5 comdat align 2 {
entry:
  %this.addr = alloca ptr, align 8
  store ptr %this, ptr %this.addr, align 8
  %this1 = load ptr, ptr %this.addr, align 8
  %m_q = getelementptr inbounds %"struct.q::clause", ptr %this1, i32 0, i32 2
  %call = call noundef ptr @_ZNK7obj_refI10quantifier11ast_managerEptEv(ptr noundef nonnull align 8 dereferenceable(16) %m_q)
  %call2 = call noundef i32 @_ZNK10quantifier13get_num_declsEv(ptr noundef nonnull align 8 dereferenceable(80) %call)
  ret i32 %call2
}

; Function Attrs: mustprogress uwtable
define hidden void @_ZN1q6solver17log_instantiationEjPKN3sat7literalEPNS_13justificationE(ptr noundef nonnull align 8 dereferenceable(3144) %this, i32 noundef %n, ptr noundef %lits, ptr noundef %j) #5 align 2 {
entry:
  %this.addr = alloca ptr, align 8
  %n.addr = alloca i32, align 4
  %lits.addr = alloca ptr, align 8
  %j.addr = alloca ptr, align 8
  store ptr %this, ptr %this.addr, align 8
  store i32 %n, ptr %n.addr, align 4
  store ptr %lits, ptr %lits.addr, align 8
  store ptr %j, ptr %j.addr, align 8
  %this1 = load ptr, ptr %this.addr, align 8
  %call = call noundef nonnull align 8 dereferenceable(800) ptr @_ZNK3euf13th_euf_solver10get_configEv(ptr noundef nonnull align 8 dereferenceable(108) %this1)
  %m_instantiations2console = getelementptr inbounds %struct.smt_params, ptr %call, i32 0, i32 69
  %0 = load i8, ptr %m_instantiations2console, align 2
  %tobool = trunc i8 %0 to i1
  br i1 %tobool, label %if.then, label %if.end

if.then:                                          ; preds = %entry
  %ctx = getelementptr inbounds %"class.euf::th_euf_solver", ptr %this1, i32 0, i32 1
  %1 = load ptr, ptr %ctx, align 8
  %2 = load i32, ptr %n.addr, align 4
  %3 = load ptr, ptr %lits.addr, align 8
  %4 = load ptr, ptr %j.addr, align 8
  %tobool2 = icmp ne ptr %4, null
  br i1 %tobool2, label %cond.true, label %cond.false

cond.true:                                        ; preds = %if.then
  %5 = load ptr, ptr %j.addr, align 8
  %m_clause = getelementptr inbounds %"struct.q::justification", ptr %5, i32 0, i32 6
  %6 = load ptr, ptr %m_clause, align 8
  %call3 = call noundef i32 @_ZNK1q6clause9num_declsEv(ptr noundef nonnull align 8 dereferenceable(56) %6)
  br label %cond.end

cond.false:                                       ; preds = %if.then
  br label %cond.end

cond.end:                                         ; preds = %cond.false, %cond.true
  %cond = phi i32 [ %call3, %cond.true ], [ 0, %cond.false ]
  %7 = load ptr, ptr %j.addr, align 8
  %tobool4 = icmp ne ptr %7, null
  br i1 %tobool4, label %cond.true5, label %cond.false6

cond.true5:                                       ; preds = %cond.end
  %8 = load ptr, ptr %j.addr, align 8
  %m_binding = getelementptr inbounds %"struct.q::justification", ptr %8, i32 0, i32 7
  %9 = load ptr, ptr %m_binding, align 8
  br label %cond.end7

cond.false6:                                      ; preds = %cond.end
  br label %cond.end7

cond.end7:                                        ; preds = %cond.false6, %cond.true5
  %cond8 = phi ptr [ %9, %cond.true5 ], [ null, %cond.false6 ]
  call void @_ZN3euf6solver16on_instantiationEjPKN3sat7literalEjPKPNS_5enodeE(ptr noundef nonnull align 8 dereferenceable(9136) %1, i32 noundef %2, ptr noundef %3, i32 noundef %cond, ptr noundef %cond8)
  br label %if.end

if.end:                                           ; preds = %cond.end7, %entry
  ret void
}