; Function Attrs: mustprogress uwtable
define hidden void @_ZN1q6solver17log_instantiationEjPKN3sat7literalEPNS_13justificationE(ptr noundef nonnull align 8 dereferenceable(3144) %this, i32 noundef %n, ptr noundef %lits, ptr noundef readonly %j) local_unnamed_addr #3 align 2 {
entry:
  %call = tail call noundef nonnull align 8 dereferenceable(800) ptr @_ZNK3euf13th_euf_solver10get_configEv(ptr noundef nonnull align 8 dereferenceable(108) %this)
  %m_instantiations2console = getelementptr inbounds i8, ptr %call, i64 738
  %0 = load i8, ptr %m_instantiations2console, align 2
  %1 = and i8 %0, 1
  %tobool.not = icmp eq i8 %1, 0
  br i1 %tobool.not, label %if.end, label %if.then

if.then:                                          ; preds = %entry
  %ctx = getelementptr inbounds i8, ptr %this, i64 80
  %2 = load ptr, ptr %ctx, align 8
  %tobool2.not = icmp eq ptr %j, null
  br i1 %tobool2.not, label %cond.end7, label %cond.true5

cond.true5:                                       ; preds = %if.then
  %m_clause = getelementptr inbounds i8, ptr %j, i64 40
  %3 = load ptr, ptr %m_clause, align 8
  %m_q.i = getelementptr inbounds i8, ptr %3, i64 16
  %4 = load ptr, ptr %m_q.i, align 8
  %m_num_decls.i.i = getelementptr inbounds i8, ptr %4, i64 20
  %5 = load i32, ptr %m_num_decls.i.i, align 4
  %m_binding = getelementptr inbounds i8, ptr %j, i64 48
  %6 = load ptr, ptr %m_binding, align 8
  br label %cond.end7

cond.end7:                                        ; preds = %if.then, %cond.true5
  %cond5 = phi i32 [ %5, %cond.true5 ], [ 0, %if.then ]
  %cond8 = phi ptr [ %6, %cond.true5 ], [ null, %if.then ]
  tail call void @_ZN3euf6solver16on_instantiationEjPKN3sat7literalEjPKPNS_5enodeE(ptr noundef nonnull align 8 dereferenceable(9136) %2, i32 noundef %n, ptr noundef %lits, i32 noundef %cond5, ptr noundef %cond8)
  br label %if.end

if.end:                                           ; preds = %cond.end7, %entry
  ret void
}